target datalayout = "e-m:e-p270:32:32-p271:32:32-p272:64:64-i64:64-i128:128-f80:128-n8:16:32:64-S128"
target triple = "x86_64-pc-linux-gnu"

%"struct.nanobind::dlpack::dtype" = type { i8, i8, i16 }
%"class.nanobind::handle" = type { ptr }
%"struct.nanobind::dlpack::dltensor" = type { ptr, %"struct.nanobind::dlpack::device", i32, %"struct.nanobind::dlpack::dtype", ptr, ptr, i64 }
%"struct.nanobind::dlpack::device" = type { i32, i32 }
%"struct.nanobind::detail::tuple.170" = type { %"struct.nanobind::detail::type_caster.171" }
%"struct.nanobind::detail::type_caster.171" = type { %"class.nanobind::ndarray.172" }
%"class.nanobind::ndarray.172" = type { ptr, %"struct.nanobind::dlpack::dltensor" }
%class.anon.418 = type { i8 }

; Function Attrs: inlinehint mustprogress nounwind optsize uwtable
define linkonce_odr hidden void @_ZN8nanobind6dlpack5dtypeC2Ev(ptr noundef nonnull align 2 dereferenceable(4) %0) unnamed_addr #11 comdat align 2 {
  %2 = alloca ptr, align 8
  store ptr %0, ptr %2, align 8, !tbaa !152
  %3 = load ptr, ptr %2, align 8
  %4 = getelementptr inbounds nuw %"struct.nanobind::dlpack::dtype", ptr %3, i32 0, i32 0
  store i8 0, ptr %4, align 2, !tbaa !154
  %5 = getelementptr inbounds nuw %"struct.nanobind::dlpack::dtype", ptr %3, i32 0, i32 1
  store i8 0, ptr %5, align 1, !tbaa !155
  %6 = getelementptr inbounds nuw %"struct.nanobind::dlpack::dtype", ptr %3, i32 0, i32 2
  store i16 0, ptr %6, align 2, !tbaa !156
  ret void
}

; Function Attrs: inlinehint mustprogress nounwind optsize uwtable
define linkonce_odr hidden void @_ZN8nanobind6dlpack6deviceC2Ev(ptr noundef nonnull align 4 dereferenceable(8) %0) unnamed_addr #11 comdat align 2 {
  %2 = alloca ptr, align 8
  store ptr %0, ptr %2, align 8, !tbaa !148
  %3 = load ptr, ptr %2, align 8
  %4 = getelementptr inbounds nuw %"struct.nanobind::dlpack::device", ptr %3, i32 0, i32 0
  store i32 0, ptr %4, align 4, !tbaa !150
  %5 = getelementptr inbounds nuw %"struct.nanobind::dlpack::device", ptr %3, i32 0, i32 1
  store i32 0, ptr %5, align 4, !tbaa !151
  ret void
}

; Function Attrs: mustprogress nounwind optsize uwtable
define linkonce_odr hidden void @_ZN8nanobind7ndarrayIJEEC2Ev(ptr noundef nonnull align 8 dereferenceable(56) %0) unnamed_addr #8 comdat align 2 {
  %2 = alloca ptr, align 8
  store ptr %0, ptr %2, align 8, !tbaa !187
  %3 = load ptr, ptr %2, align 8
  %4 = getelementptr inbounds nuw %"class.nanobind::ndarray.172", ptr %3, i32 0, i32 0
  store ptr null, ptr %4, align 8, !tbaa !189
  %5 = getelementptr inbounds nuw %"class.nanobind::ndarray.172", ptr %3, i32 0, i32 1
  call void @_ZN8nanobind6dlpack8dltensorC2Ev(ptr noundef nonnull align 8 dereferenceable(48) %5) #23
  ret void
}

; Function Attrs: inlinehint mustprogress nounwind optsize uwtable
define linkonce_odr hidden void @_ZN8nanobind6detail11type_casterINS_7ndarrayIJEEEiED2Ev(ptr noundef nonnull align 8 dereferenceable(56) %0) unnamed_addr #11 comdat align 2 {
  %2 = alloca ptr, align 8
  store ptr %0, ptr %2, align 8, !tbaa !185
  %3 = load ptr, ptr %2, align 8
  %4 = getelementptr inbounds nuw %"struct.nanobind::detail::type_caster.171", ptr %3, i32 0, i32 0
  call void @_ZN8nanobind7ndarrayIJEED2Ev(ptr noundef nonnull align 8 dereferenceable(56) %4) #23
  ret void
}

; Function Attrs: noinline noreturn nounwind optsize uwtable
define linkonce_odr hidden void @__clang_call_terminate(ptr noundef %0) #7 comdat {
  %2 = call ptr @__cxa_begin_catch(ptr %0) #22
  call void @_ZSt9terminatev() #24
  unreachable
}

; Function Attrs: mustprogress nounwind optsize uwtable
define linkonce_odr hidden noundef ptr @_ZNK8nanobind7ndarrayIJEE6handleEv(ptr noundef nonnull align 8 dereferenceable(56) %0) #8 comdat align 2 {
  %2 = alloca ptr, align 8
  store ptr %0, ptr %2, align 8, !tbaa !187
  %3 = load ptr, ptr %2, align 8
  %4 = getelementptr inbounds nuw %"class.nanobind::ndarray.172", ptr %3, i32 0, i32 0
  %5 = load ptr, ptr %4, align 8, !tbaa !189
  ret ptr %5
}

; Function Attrs: inlinehint mustprogress nounwind optsize uwtable
define linkonce_odr hidden void @_ZN8nanobind6dlpack8dltensorC2Ev(ptr noundef nonnull align 8 dereferenceable(48) %0) unnamed_addr #11 comdat align 2 {
  %2 = alloca ptr, align 8
  store ptr %0, ptr %2, align 8, !tbaa !141
  %3 = load ptr, ptr %2, align 8
  %4 = getelementptr inbounds nuw %"struct.nanobind::dlpack::dltensor", ptr %3, i32 0, i32 0
  store ptr null, ptr %4, align 8, !tbaa !143
  %5 = getelementptr inbounds nuw %"struct.nanobind::dlpack::dltensor", ptr %3, i32 0, i32 1
  call void @_ZN8nanobind6dlpack6deviceC2Ev(ptr noundef nonnull align 4 dereferenceable(8) %5) #23
  %6 = getelementptr inbounds nuw %"struct.nanobind::dlpack::dltensor", ptr %3, i32 0, i32 2
  store i32 0, ptr %6, align 8, !tbaa !144
  %7 = getelementptr inbounds nuw %"struct.nanobind::dlpack::dltensor", ptr %3, i32 0, i32 3
  call void @_ZN8nanobind6dlpack5dtypeC2Ev(ptr noundef nonnull align 2 dereferenceable(4) %7) #23
  %8 = getelementptr inbounds nuw %"struct.nanobind::dlpack::dltensor", ptr %3, i32 0, i32 4
  store ptr null, ptr %8, align 8, !tbaa !145
  %9 = getelementptr inbounds nuw %"struct.nanobind::dlpack::dltensor", ptr %3, i32 0, i32 5
  store ptr null, ptr %9, align 8, !tbaa !146
  %10 = getelementptr inbounds nuw %"struct.nanobind::dlpack::dltensor", ptr %3, i32 0, i32 6
  store i64 0, ptr %10, align 8, !tbaa !147
  ret void
}

; Function Attrs: inlinehint mustprogress nounwind optsize uwtable
define linkonce_odr hidden void @_ZN8nanobind6detail11type_casterINS_7ndarrayIJEEEiEC2Ev(ptr noundef nonnull align 8 dereferenceable(56) %0) unnamed_addr #11 comdat align 2 {
  %2 = alloca ptr, align 8
  store ptr %0, ptr %2, align 8, !tbaa !185
  %3 = load ptr, ptr %2, align 8
  %4 = getelementptr inbounds nuw %"struct.nanobind::detail::type_caster.171", ptr %3, i32 0, i32 0
  call void @_ZN8nanobind7ndarrayIJEEC2Ev(ptr noundef nonnull align 8 dereferenceable(56) %4) #23
  ret void
}

; Function Attrs: inlinehint mustprogress nounwind optsize uwtable
define linkonce_odr hidden void @_ZN8nanobind6detail5tupleIJNS0_11type_casterINS_7ndarrayIJEEEiEEEED2Ev(ptr noundef nonnull align 8 dereferenceable(56) %0) unnamed_addr #11 comdat align 2 {
  %2 = alloca ptr, align 8
  store ptr %0, ptr %2, align 8, !tbaa !183
  %3 = load ptr, ptr %2, align 8
  %4 = getelementptr inbounds nuw %"struct.nanobind::detail::tuple.170", ptr %3, i32 0, i32 0
  call void @_ZN8nanobind6detail11type_casterINS_7ndarrayIJEEEiED2Ev(ptr noundef nonnull align 8 dereferenceable(56) %4) #23
  ret void
}

; Function Attrs: mustprogress nounwind optsize uwtable
define linkonce_odr hidden void @_ZN8nanobind7ndarrayIJEED2Ev(ptr noundef nonnull align 8 dereferenceable(56) %0) unnamed_addr #8 comdat align 2 {
  %2 = alloca ptr, align 8
  store ptr %0, ptr %2, align 8, !tbaa !187
  %3 = load ptr, ptr %2, align 8
  %4 = getelementptr inbounds nuw %"class.nanobind::ndarray.172", ptr %3, i32 0, i32 0
  %5 = load ptr, ptr %4, align 8, !tbaa !189
  call void @_ZN8nanobind6detail15ndarray_dec_refEPNS0_14ndarray_handleE(ptr noundef %5) #23
  ret void
}

; Function Attrs: alwaysinline mustprogress nounwind optsize uwtable
define linkonce_odr hidden noundef ptr @_ZNK8nanobind6handle3ptrEv(ptr noundef nonnull align 8 dereferenceable(8) %0) #5 comdat align 2 {
  %2 = alloca ptr, align 8
  store ptr %0, ptr %2, align 8, !tbaa !12
  %3 = load ptr, ptr %2, align 8
  %4 = getelementptr inbounds nuw %"class.nanobind::handle", ptr %3, i32 0, i32 0
  %5 = load ptr, ptr %4, align 8, !tbaa !14
  ret ptr %5
}

; Function Attrs: mustprogress nounwind optsize uwtable
define linkonce_odr hidden ptr @_ZN8nanobind6detail11type_casterINS_7ndarrayIJEEEiE8from_cppERKS3_NS_9rv_policyEPNS0_12cleanup_listE(ptr noundef nonnull align 8 dereferenceable(56) %0, i32 noundef %1, ptr noundef %2) #8 comdat align 2 personality ptr @__gxx_personality_v0 {
  %4 = alloca %"class.nanobind::handle", align 8
  %5 = alloca ptr, align 8
  %6 = alloca i32, align 4
  %7 = alloca ptr, align 8
  store ptr %0, ptr %5, align 8, !tbaa !187
  store i32 %1, ptr %6, align 4, !tbaa !18
  store ptr %2, ptr %7, align 8, !tbaa !127
  %8 = load ptr, ptr %5, align 8, !tbaa !187
  %9 = invoke noundef ptr @_ZNK8nanobind7ndarrayIJEE6handleEv(ptr noundef nonnull align 8 dereferenceable(56) %8) #21
          to label %10 unwind label %17

10:                                               ; preds = %3
  %11 = load i32, ptr %6, align 4, !tbaa !18
  %12 = load ptr, ptr %7, align 8, !tbaa !127
  %13 = call noundef ptr @_ZN8nanobind6detail14ndarray_exportEPNS0_14ndarray_handleEiNS_9rv_policyEPNS0_12cleanup_listE(ptr noundef %9, i32 noundef 0, i32 noundef %11, ptr noundef %12) #23
  invoke void @_ZN8nanobind6handleC2EPK7_object(ptr noundef nonnull align 8 dereferenceable(8) %4, ptr noundef %13) #21
          to label %14 unwind label %17

14:                                               ; preds = %10
  %15 = getelementptr inbounds nuw %"class.nanobind::handle", ptr %4, i32 0, i32 0
  %16 = load ptr, ptr %15, align 8
  ret ptr %16

17:                                               ; preds = %10, %3
  %18 = landingpad { ptr, i32 }
          catch ptr null
  %19 = extractvalue { ptr, i32 } %18, 0
  call void @__clang_call_terminate(ptr %19) #24
  unreachable
}

; Function Attrs: inlinehint mustprogress nounwind optsize uwtable
define internal void @"_ZZL30nanobind_init_test_ndarray_extRN8nanobind7module_EENK4$_46clENS_7ndarrayIJEEE"(ptr dead_on_unwind noalias writable sret(%"class.nanobind::ndarray.172") align 8 %0, ptr noundef nonnull align 1 dereferenceable(1) %1, ptr noundef %2) #11 align 2 {
  %4 = alloca ptr, align 8
  %5 = alloca ptr, align 8
  %6 = alloca ptr, align 8
  store ptr %0, ptr %4, align 8
  store ptr %1, ptr %5, align 8, !tbaa !29
  store ptr %2, ptr %6, align 8, !tbaa !187
  call void @_ZN8nanobind7ndarrayIJEEC2EOS1_(ptr noundef nonnull align 8 dereferenceable(56) %0, ptr noundef nonnull align 8 dereferenceable(56) %2) #23
  ret void
}

; Function Attrs: mustprogress nounwind optsize uwtable
define linkonce_odr hidden void @_ZN8nanobind7ndarrayIJEEC2EOS1_(ptr noundef nonnull align 8 dereferenceable(56) %0, ptr noundef nonnull align 8 dereferenceable(56) %1) unnamed_addr #8 comdat align 2 {
  %3 = alloca ptr, align 8
  %4 = alloca ptr, align 8
  %5 = alloca %"struct.nanobind::dlpack::dltensor", align 8
  store ptr %0, ptr %3, align 8, !tbaa !187
  store ptr %1, ptr %4, align 8, !tbaa !187
  %6 = load ptr, ptr %3, align 8
  %7 = getelementptr inbounds nuw %"class.nanobind::ndarray.172", ptr %6, i32 0, i32 0
  %8 = load ptr, ptr %4, align 8, !tbaa !187
  %9 = getelementptr inbounds nuw %"class.nanobind::ndarray.172", ptr %8, i32 0, i32 0
  %10 = load ptr, ptr %9, align 8, !tbaa !189
  store ptr %10, ptr %7, align 8, !tbaa !189
  %11 = getelementptr inbounds nuw %"class.nanobind::ndarray.172", ptr %6, i32 0, i32 1
  %12 = load ptr, ptr %4, align 8, !tbaa !187
  %13 = getelementptr inbounds nuw %"class.nanobind::ndarray.172", ptr %12, i32 0, i32 1
  call void @llvm.memcpy.p0.p0.i64(ptr align 8 %11, ptr align 8 %13, i64 48, i1 false), !tbaa.struct !159
  %14 = load ptr, ptr %4, align 8, !tbaa !187
  %15 = getelementptr inbounds nuw %"class.nanobind::ndarray.172", ptr %14, i32 0, i32 0
  store ptr null, ptr %15, align 8, !tbaa !189
  call void @llvm.lifetime.start.p0(i64 48, ptr %5) #22
  call void @llvm.memset.p0.i64(ptr align 8 %5, i8 0, i64 48, i1 false)
  call void @_ZN8nanobind6dlpack8dltensorC2Ev(ptr noundef nonnull align 8 dereferenceable(48) %5) #23
  %16 = load ptr, ptr %4, align 8, !tbaa !187
  %17 = getelementptr inbounds nuw %"class.nanobind::ndarray.172", ptr %16, i32 0, i32 1
  call void @llvm.memcpy.p0.p0.i64(ptr align 8 %17, ptr align 8 %5, i64 48, i1 false), !tbaa.struct !159
  call void @llvm.lifetime.end.p0(i64 48, ptr %5) #22
  ret void
}

; Function Attrs: mustprogress nounwind optsize uwtable
define linkonce_odr hidden noundef nonnull align 8 dereferenceable(56) ptr @_ZN8nanobind6detail11type_casterINS_7ndarrayIJEEEiEcvOS3_Ev(ptr noundef nonnull align 8 dereferenceable(56) %0) #8 comdat align 2 {
  %2 = alloca ptr, align 8
  store ptr %0, ptr %2, align 8, !tbaa !185
  %3 = load ptr, ptr %2, align 8
  %4 = getelementptr inbounds nuw %"struct.nanobind::detail::type_caster.171", ptr %3, i32 0, i32 0
  ret ptr %4
}

; Function Attrs: alwaysinline mustprogress nounwind optsize uwtable
define linkonce_odr hidden void @_ZN8nanobind6handleC2EPK7_object(ptr noundef nonnull align 8 dereferenceable(8) %0, ptr noundef %1) unnamed_addr #5 comdat align 2 {
  %3 = alloca ptr, align 8
  %4 = alloca ptr, align 8
  store ptr %0, ptr %3, align 8, !tbaa !12
  store ptr %1, ptr %4, align 8, !tbaa !3
  %5 = load ptr, ptr %3, align 8
  %6 = getelementptr inbounds nuw %"class.nanobind::handle", ptr %5, i32 0, i32 0
  %7 = load ptr, ptr %4, align 8, !tbaa !3
  store ptr %7, ptr %6, align 8, !tbaa !14
  ret void
}

; Function Attrs: alwaysinline mustprogress nounwind optsize uwtable
define linkonce_odr hidden noundef nonnull align 8 dereferenceable(56) ptr @_ZN8nanobind6detail5tupleIJNS0_11type_casterINS_7ndarrayIJEEEiEEEE3getILm0EEERDav(ptr noundef nonnull align 8 dereferenceable(56) %0) #5 comdat align 2 {
  %2 = alloca ptr, align 8
  store ptr %0, ptr %2, align 8, !tbaa !183
  %3 = load ptr, ptr %2, align 8
  %4 = getelementptr inbounds nuw %"struct.nanobind::detail::tuple.170", ptr %3, i32 0, i32 0
  ret ptr %4
}

; Function Attrs: mustprogress nounwind optsize uwtable
define linkonce_odr hidden void @_ZN8nanobind6detail5tupleIJNS0_11type_casterINS_7ndarrayIJEEEiEEEEC2Ev(ptr noundef nonnull align 8 dereferenceable(56) %0) unnamed_addr #8 comdat align 2 {
  %2 = alloca ptr, align 8
  store ptr %0, ptr %2, align 8, !tbaa !183
  %3 = load ptr, ptr %2, align 8
  %4 = getelementptr inbounds nuw %"struct.nanobind::detail::tuple.170", ptr %3, i32 0, i32 0
  call void @_ZN8nanobind6detail11type_casterINS_7ndarrayIJEEEiEC2Ev(ptr noundef nonnull align 8 dereferenceable(56) %4) #23
  ret void
}

; Function Attrs: alwaysinline mustprogress optsize uwtable
define internal noundef ptr @"_ZZN8nanobind6detail11func_createILb0ELb1EZL30nanobind_init_test_ndarray_extRNS_7module_EE4$_46NS_7ndarrayIJEEEJS6_EJLm0EEJNS_5scopeENS_4nameENS_3argENS_9rv_policyEEEEP7_objectOT1_PFT2_DpT3_ESt16integer_sequenceImJXspT4_EEEDpRKT5_ENKUlPvPSC_PhSA_PNS0_12cleanup_listEE_clESQ_SR_SS_SA_SU_"(ptr noundef nonnull align 1 dereferenceable(1) %0, ptr noundef %1, ptr noundef %2, ptr noundef %3, i32 noundef %4, ptr noundef %5) #3 align 2 personality ptr @__gxx_personality_v0 {
  %7 = alloca ptr, align 8
  %8 = alloca ptr, align 8
  %9 = alloca ptr, align 8
  %10 = alloca ptr, align 8
  %11 = alloca ptr, align 8
  %12 = alloca i32, align 4
  %13 = alloca ptr, align 8
  %14 = alloca ptr, align 8
  %15 = alloca %"struct.nanobind::detail::tuple.170", align 8
  %16 = alloca %"class.nanobind::handle", align 8
  %17 = alloca ptr, align 8
  %18 = alloca i32, align 4
  %19 = alloca i32, align 4
  %20 = alloca ptr, align 8
  %21 = alloca %"class.nanobind::handle", align 8
  %22 = alloca %"class.nanobind::ndarray.172", align 8
  %23 = alloca %"class.nanobind::ndarray.172", align 8
  store ptr %0, ptr %8, align 8, !tbaa !29
  store ptr %1, ptr %9, align 8, !tbaa !29
  store ptr %2, ptr %10, align 8, !tbaa !125
  store ptr %3, ptr %11, align 8, !tbaa !27
  store i32 %4, ptr %12, align 4, !tbaa !18
  store ptr %5, ptr %13, align 8, !tbaa !127
  call void @llvm.lifetime.start.p0(i64 8, ptr %14) #22
  %24 = load ptr, ptr %9, align 8, !tbaa !29
  store ptr %24, ptr %14, align 8, !tbaa !582
  call void @llvm.lifetime.start.p0(i64 56, ptr %15) #22
  call void @_ZN8nanobind6detail5tupleIJNS0_11type_casterINS_7ndarrayIJEEEiEEEEC2Ev(ptr noundef nonnull align 8 dereferenceable(56) %15) #23
  %25 = call noundef nonnull align 8 dereferenceable(56) ptr @_ZN8nanobind6detail5tupleIJNS0_11type_casterINS_7ndarrayIJEEEiEEEE3getILm0EEERDav(ptr noundef nonnull align 8 dereferenceable(56) %15) #21
  %26 = load ptr, ptr %10, align 8, !tbaa !125
  %27 = getelementptr inbounds nuw ptr, ptr %26, i64 0
  %28 = load ptr, ptr %27, align 8, !tbaa !3
  invoke void @_ZN8nanobind6handleC2EPK7_object(ptr noundef nonnull align 8 dereferenceable(8) %16, ptr noundef %28) #21
          to label %29 unwind label %38

29:                                               ; preds = %6
  %30 = load ptr, ptr %11, align 8, !tbaa !27
  %31 = getelementptr inbounds nuw i8, ptr %30, i64 0
  %32 = load i8, ptr %31, align 1, !tbaa !20
  %33 = load ptr, ptr %13, align 8, !tbaa !127
  %34 = getelementptr inbounds nuw %"class.nanobind::handle", ptr %16, i32 0, i32 0
  %35 = load ptr, ptr %34, align 8
  %36 = call noundef zeroext i1 @_ZN8nanobind6detail11type_casterINS_7ndarrayIJEEEiE11from_pythonENS_6handleEhPNS0_12cleanup_listE(ptr noundef nonnull align 8 dereferenceable(56) %25, ptr %35, i8 noundef zeroext %32, ptr noundef %33) #23
  br i1 %36, label %42, label %37

37:                                               ; preds = %29
  store ptr inttoptr (i64 1 to ptr), ptr %7, align 8
  store i32 1, ptr %19, align 4
  br label %57

38:                                               ; preds = %6
  %39 = landingpad { ptr, i32 }
          cleanup
  %40 = extractvalue { ptr, i32 } %39, 0
  store ptr %40, ptr %17, align 8
  %41 = extractvalue { ptr, i32 } %39, 1
  store i32 %41, ptr %18, align 4
  br label %59

42:                                               ; preds = %29
  call void @llvm.lifetime.start.p0(i64 8, ptr %20) #22
  call void @llvm.lifetime.start.p0(i64 8, ptr %21) #22
  call void @llvm.lifetime.start.p0(i64 56, ptr %22) #22
  %43 = load ptr, ptr %14, align 8, !tbaa !582
  %44 = call noundef nonnull align 8 dereferenceable(56) ptr @_ZN8nanobind6detail5tupleIJNS0_11type_casterINS_7ndarrayIJEEEiEEEE3getILm0EEERDav(ptr noundef nonnull align 8 dereferenceable(56) %15) #21
  %45 = call noundef nonnull align 8 dereferenceable(56) ptr @_ZN8nanobind6detail11type_casterINS_7ndarrayIJEEEiEcvOS3_Ev(ptr noundef nonnull align 8 dereferenceable(56) %44) #21
  call void @_ZN8nanobind7ndarrayIJEEC2EOS1_(ptr noundef nonnull align 8 dereferenceable(56) %23, ptr noundef nonnull align 8 dereferenceable(56) %45) #23
  invoke void @"_ZZL30nanobind_init_test_ndarray_extRN8nanobind7module_EENK4$_46clENS_7ndarrayIJEEE"(ptr dead_on_unwind writable sret(%"class.nanobind::ndarray.172") align 8 %22, ptr noundef nonnull align 1 dereferenceable(1) %43, ptr noundef %23) #21
          to label %46 unwind label %53

46:                                               ; preds = %42
  %47 = load i32, ptr %12, align 4, !tbaa !18
  %48 = load ptr, ptr %13, align 8, !tbaa !127
  %49 = call ptr @_ZN8nanobind6detail11type_casterINS_7ndarrayIJEEEiE8from_cppERKS3_NS_9rv_policyEPNS0_12cleanup_listE(ptr noundef nonnull align 8 dereferenceable(56) %22, i32 noundef %47, ptr noundef %48) #23
  %50 = getelementptr inbounds nuw %"class.nanobind::handle", ptr %21, i32 0, i32 0
  store ptr %49, ptr %50, align 8
  %51 = call noundef ptr @_ZNK8nanobind6handle3ptrEv(ptr noundef nonnull align 8 dereferenceable(8) %21) #21
  store ptr %51, ptr %20, align 8, !tbaa !3
  call void @_ZN8nanobind7ndarrayIJEED2Ev(ptr noundef nonnull align 8 dereferenceable(56) %22) #23
  call void @_ZN8nanobind7ndarrayIJEED2Ev(ptr noundef nonnull align 8 dereferenceable(56) %23) #23
  call void @llvm.lifetime.end.p0(i64 56, ptr %22) #22
  call void @llvm.lifetime.end.p0(i64 8, ptr %21) #22
  %52 = load ptr, ptr %20, align 8, !tbaa !3
  store ptr %52, ptr %7, align 8
  store i32 1, ptr %19, align 4
  call void @llvm.lifetime.end.p0(i64 8, ptr %20) #22
  br label %57

53:                                               ; preds = %42
  %54 = landingpad { ptr, i32 }
          cleanup
  %55 = extractvalue { ptr, i32 } %54, 0
  store ptr %55, ptr %17, align 8
  %56 = extractvalue { ptr, i32 } %54, 1
  store i32 %56, ptr %18, align 4
  call void @_ZN8nanobind7ndarrayIJEED2Ev(ptr noundef nonnull align 8 dereferenceable(56) %23) #23
  call void @llvm.lifetime.end.p0(i64 56, ptr %22) #22
  call void @llvm.lifetime.end.p0(i64 8, ptr %21) #22
  call void @llvm.lifetime.end.p0(i64 8, ptr %20) #22
  br label %59

57:                                               ; preds = %46, %37
  call void @_ZN8nanobind6detail5tupleIJNS0_11type_casterINS_7ndarrayIJEEEiEEEED2Ev(ptr noundef nonnull align 8 dereferenceable(56) %15) #23
  call void @llvm.lifetime.end.p0(i64 56, ptr %15) #22
  call void @llvm.lifetime.end.p0(i64 8, ptr %14) #22
  %58 = load ptr, ptr %7, align 8
  ret ptr %58

59:                                               ; preds = %53, %38
  call void @_ZN8nanobind6detail5tupleIJNS0_11type_casterINS_7ndarrayIJEEEiEEEED2Ev(ptr noundef nonnull align 8 dereferenceable(56) %15) #23
  call void @llvm.lifetime.end.p0(i64 56, ptr %15) #22
  call void @llvm.lifetime.end.p0(i64 8, ptr %14) #22
  br label %60

60:                                               ; preds = %59
  %61 = load ptr, ptr %17, align 8
  %62 = load i32, ptr %18, align 4
  %63 = insertvalue { ptr, i32 } poison, ptr %61, 0
  %64 = insertvalue { ptr, i32 } %63, i32 %62, 1
  resume { ptr, i32 } %64
}

; Function Attrs: inlinehint mustprogress optsize uwtable
define internal noundef ptr @"_ZZN8nanobind6detail11func_createILb0ELb1EZL30nanobind_init_test_ndarray_extRNS_7module_EE4$_46NS_7ndarrayIJEEEJS6_EJLm0EEJNS_5scopeENS_4nameENS_3argENS_9rv_policyEEEEP7_objectOT1_PFT2_DpT3_ESt16integer_sequenceImJXspT4_EEEDpRKT5_ENUlPvPSC_PhSA_PNS0_12cleanup_listEE_8__invokeESQ_SR_SS_SA_SU_"(ptr noundef %0, ptr noundef %1, ptr noundef %2, i32 noundef %3, ptr noundef %4) #9 align 2 {
  %6 = alloca ptr, align 8
  %7 = alloca ptr, align 8
  %8 = alloca ptr, align 8
  %9 = alloca i32, align 4
  %10 = alloca ptr, align 8
  %11 = alloca %class.anon.418, align 1
  store ptr %0, ptr %6, align 8, !tbaa !29
  store ptr %1, ptr %7, align 8, !tbaa !125
  store ptr %2, ptr %8, align 8, !tbaa !27
  store i32 %3, ptr %9, align 4, !tbaa !18
  store ptr %4, ptr %10, align 8, !tbaa !127
  %12 = load ptr, ptr %6, align 8, !tbaa !29
  %13 = load ptr, ptr %7, align 8, !tbaa !125
  %14 = load ptr, ptr %8, align 8, !tbaa !27
  %15 = load i32, ptr %9, align 4, !tbaa !18
  %16 = load ptr, ptr %10, align 8, !tbaa !127
  %17 = call noundef ptr @"_ZZN8nanobind6detail11func_createILb0ELb1EZL30nanobind_init_test_ndarray_extRNS_7module_EE4$_46NS_7ndarrayIJEEEJS6_EJLm0EEJNS_5scopeENS_4nameENS_3argENS_9rv_policyEEEEP7_objectOT1_PFT2_DpT3_ESt16integer_sequenceImJXspT4_EEEDpRKT5_ENKUlPvPSC_PhSA_PNS0_12cleanup_listEE_clESQ_SR_SS_SA_SU_"(ptr noundef nonnull align 1 dereferenceable(1) %11, ptr noundef %12, ptr noundef %13, ptr noundef %14, i32 noundef %15, ptr noundef %16) #21
  ret ptr %17
}